target datalayout = "e-m:e-p270:32:32-p271:32:32-p272:64:64-i64:64-i128:128-f80:128-n8:16:32:64-S128"
target triple = "x86_64-pc-linux-gnu"

%struct.darktable_t = type { %struct.dt_codepath_t, i32, i32, ptr, ptr, ptr, ptr, ptr, ptr, ptr, ptr, ptr, ptr, ptr, ptr, ptr, ptr, ptr, ptr, ptr, ptr, ptr, ptr, ptr, ptr, ptr, ptr, ptr, ptr, ptr, [64 x %struct.dt_pthread_mutex_t], %struct.dt_pthread_mutex_t, %struct.dt_pthread_mutex_t, %struct.dt_pthread_mutex_t, %struct.dt_pthread_mutex_t, %struct.dt_pthread_mutex_t, ptr, ptr, ptr, ptr, ptr, ptr, ptr, ptr, ptr, ptr, ptr, ptr, ptr, %struct.dt_lua_state_t, ptr, double, ptr, i32, [47 x i32], i32, i32, ptr, ptr, %struct.dt_sys_resources_t, %struct.dt_backthumb_t, %struct.dt_gimp_t }
%struct.dt_codepath_t = type { i8, [3 x i8] }
%struct.dt_pthread_mutex_t = type { %union.pthread_mutex_t }
%union.pthread_mutex_t = type { %struct.__pthread_mutex_s }
%struct.__pthread_mutex_s = type { i32, i32, i32, i32, i32, i16, i16, %struct.__pthread_internal_list }
%struct.__pthread_internal_list = type { ptr, ptr }
%struct.dt_lua_state_t = type { i32 }
%struct.dt_sys_resources_t = type { i64, i64, ptr, ptr, i32 }
%struct.dt_backthumb_t = type { double, double, i32, i32, i32, i32 }
%struct.dt_gimp_t = type { i32, ptr, ptr, i32, i32 }
%struct.dt_iop_module_t = type { i32, ptr, ptr, ptr, ptr, ptr, ptr, ptr, ptr, ptr, ptr, ptr, ptr, ptr, ptr, ptr, ptr, ptr, ptr, ptr, ptr, ptr, ptr, ptr, ptr, ptr, ptr, ptr, ptr, ptr, ptr, ptr, ptr, ptr, ptr, ptr, ptr, ptr, ptr, ptr, ptr, ptr, ptr, ptr, ptr, ptr, ptr, ptr, ptr, ptr, ptr, ptr, ptr, ptr, ptr, ptr, ptr, [20 x i8], i32, i32, i32, i32, i32, i32, i32, [8 x i8], [4 x float], [4 x float], [4 x float], [4 x float], [4 x float], [4 x float], ptr, %struct.dt_dev_histogram_stats_t, [4 x i32], i32, i32, ptr, i32, i32, ptr, ptr, i32, ptr, %struct.dt_pthread_mutex_t, ptr, ptr, ptr, ptr, %struct.anon, ptr, ptr, ptr, ptr, ptr, ptr, ptr, i32, ptr, ptr, ptr, ptr, ptr, ptr, ptr, i32, ptr, i32, [128 x i8], i32, ptr, ptr, i32, [12 x i8] }
%struct.dt_dev_histogram_stats_t = type { i32, i64, i32, i32 }
%struct.anon = type { %struct.anon.0, %struct.anon.1 }
%struct.anon.0 = type { ptr, ptr }
%struct.anon.1 = type { ptr, i32 }
%struct.dt_iop_rgblevels_gui_data_t = type { %struct.dt_iop_rgblevels_params_t, ptr, ptr, ptr, ptr, ptr, ptr, i32, i32, float, float, float, float, [4 x float], i32, double, double, i32, i32, float, i32, float, ptr, ptr, ptr }
%struct.dt_iop_rgblevels_params_t = type { i32, i32, [3 x [3 x float]] }
%struct.dt_develop_t = type { i32, i32, i32, ptr, double, double, i32, i32, i32, i32, i32, double, i32, i32, i32, ptr, ptr, [8 x i8], %struct.dt_image_t, i32, i32, %struct.dt_pthread_mutex_t, i32, ptr, i32, ptr, i32, ptr, ptr, i32, ptr, ptr, ptr, ptr, i32, i32, ptr, ptr, ptr, ptr, i32, i32, i32, float, float, ptr, i32, %struct.anon.8, %struct.dt_dev_chroma_t, %struct.anon.11, %struct.anon.12, %struct.anon.13, %struct.anon.14, %struct.anon.15, %struct.anon.16, ptr, ptr, %struct.dt_dev_viewport_t, %struct.dt_dev_viewport_t, i32, i32, i32, ptr, [8 x i8] }
%struct.dt_image_t = type { i32, i32, float, float, float, float, float, float, float, [64 x i8], [64 x i8], [128 x i8], [64 x i8], [64 x i8], [64 x i8], [64 x i8], i64, i32, %union.dt_image_correction_data_t, [64 x i8], [64 x i8], [64 x i8], [128 x i8], i32, [256 x i8], i32, i32, i32, i32, i32, i32, i32, i32, i32, i32, float, i32, i32, i32, i32, i32, i32, i64, i64, i64, i64, i32, [12 x i8], %struct.dt_iop_buffer_dsc_t, [9 x float], ptr, i32, i32, %struct.dt_image_raw_parameters_t, %struct.dt_image_geoloc_t, %struct._color_harmony_t, i16, [4 x i16], i32, i32, float, float, [4 x float], [4 x [3 x float]], [4 x float], ptr, ptr, i32, i32, [8 x i8] }
%union.dt_image_correction_data_t = type { %struct.anon.3 }
%struct.anon.3 = type { i32, float, [11 x float], [11 x float], [11 x float], [11 x float], [11 x float] }
%struct.dt_iop_buffer_dsc_t = type { i32, i32, i32, [6 x [6 x i8]], %struct.anon.6, [12 x i8], %struct.anon.7, [4 x float], i32, [12 x i8] }
%struct.anon.6 = type { i16, i16 }
%struct.anon.7 = type { i32, [12 x i8], [4 x float] }
%struct.dt_image_raw_parameters_t = type { i32 }
%struct.dt_image_geoloc_t = type { double, double, double }
%struct._color_harmony_t = type { i32, i32, i32 }
%struct.anon.8 = type { %struct.dt_dev_proxy_exposure_t, ptr, %struct.anon.9, %struct.anon.10 }
%struct.dt_dev_proxy_exposure_t = type { ptr, ptr, ptr, ptr }
%struct.anon.9 = type { ptr, ptr, ptr, ptr, ptr, ptr, ptr, ptr, ptr }
%struct.anon.10 = type { ptr, ptr, ptr, ptr, ptr }
%struct.dt_dev_chroma_t = type { ptr, ptr, [4 x double], [4 x double], [4 x double], i32 }
%struct.anon.11 = type { ptr, ptr, ptr }
%struct.anon.12 = type { ptr, ptr, i32, i32, float, float, i32 }
%struct.anon.13 = type { ptr, ptr, i32, i32, i32, float }
%struct.anon.14 = type { ptr }
%struct.anon.15 = type { ptr, i32 }
%struct.anon.16 = type { ptr, ptr, ptr }
%struct.dt_dev_viewport_t = type { ptr, i32, i32, i32, i32, i32, double, double, double, i32, i32, i32, float, float, float, ptr }
%struct._GdkEventButton = type { i32, ptr, i8, i32, double, double, ptr, i32, i32, ptr, double, double }

@darktable = external global %struct.darktable_t, align 8

; Function Attrs: nounwind uwtable
define internal void @_turn_select_region_off(ptr noundef %0) #0 {
  %2 = alloca ptr, align 8
  %3 = alloca ptr, align 8
  store ptr %0, ptr %2, align 8, !tbaa !6
  call void @llvm.lifetime.start.p0(i64 8, ptr %3) #13
  %4 = load ptr, ptr %2, align 8, !tbaa !6
  %5 = getelementptr inbounds nuw %struct.dt_iop_module_t, ptr %4, i32 0, i32 83
  %6 = load ptr, ptr %5, align 16, !tbaa !21
  store ptr %6, ptr %3, align 8, !tbaa !37
  %7 = load ptr, ptr %3, align 8, !tbaa !37
  %8 = icmp ne ptr %7, null
  br i1 %8, label %9, label %22

9:                                                ; preds = %1
  %10 = load ptr, ptr %3, align 8, !tbaa !37
  %11 = getelementptr inbounds nuw %struct.dt_iop_rgblevels_gui_data_t, ptr %10, i32 0, i32 8
  store i32 0, ptr %11, align 4, !tbaa !39
  %12 = load ptr, ptr %3, align 8, !tbaa !37
  %13 = getelementptr inbounds nuw %struct.dt_iop_rgblevels_gui_data_t, ptr %12, i32 0, i32 14
  store i32 0, ptr %13, align 8, !tbaa !44
  %14 = load ptr, ptr %3, align 8, !tbaa !37
  %15 = getelementptr inbounds nuw %struct.dt_iop_rgblevels_gui_data_t, ptr %14, i32 0, i32 6
  %16 = load ptr, ptr %15, align 8, !tbaa !148
  %17 = call i64 @gtk_toggle_button_get_type() #14
  %18 = call ptr @g_type_check_instance_cast(ptr noundef %16, i64 noundef %17)
  %19 = load ptr, ptr %3, align 8, !tbaa !37
  %20 = getelementptr inbounds nuw %struct.dt_iop_rgblevels_gui_data_t, ptr %19, i32 0, i32 8
  %21 = load i32, ptr %20, align 4, !tbaa !39
  call void @gtk_toggle_button_set_active(ptr noundef %18, i32 noundef %21)
  br label %22

22:                                               ; preds = %9, %1
  call void @llvm.lifetime.end.p0(i64 8, ptr %3) #13
  ret void
}

; Function Attrs: nounwind uwtable
define internal void @_turn_selregion_picker_off(ptr noundef %0) #0 {
  %2 = alloca ptr, align 8
  store ptr %0, ptr %2, align 8, !tbaa !6
  %3 = load ptr, ptr %2, align 8, !tbaa !6
  call void @_turn_select_region_off(ptr noundef %3)
  %4 = load ptr, ptr %2, align 8, !tbaa !6
  call void @dt_iop_color_picker_reset(ptr noundef %4, i32 noundef 1)
  ret void
}

; Function Attrs: nounwind uwtable
define internal i32 @_area_button_press_callback(ptr noundef %0, ptr noundef %1, ptr noundef %2) #0 {
  %4 = alloca i32, align 4
  %5 = alloca ptr, align 8
  %6 = alloca ptr, align 8
  %7 = alloca ptr, align 8
  %8 = alloca ptr, align 8
  %9 = alloca ptr, align 8
  %10 = alloca ptr, align 8
  %11 = alloca i32, align 4
  %12 = alloca ptr, align 8
  store ptr %0, ptr %5, align 8, !tbaa !123
  store ptr %1, ptr %6, align 8, !tbaa !201
  store ptr %2, ptr %7, align 8, !tbaa !6
  %13 = load ptr, ptr %6, align 8, !tbaa !201
  %14 = getelementptr inbounds nuw %struct._GdkEventButton, ptr %13, i32 0, i32 8
  %15 = load i32, ptr %14, align 4, !tbaa !203
  %16 = icmp eq i32 %15, 1
  br i1 %16, label %17, label %88

17:                                               ; preds = %3
  %18 = load ptr, ptr getelementptr inbounds nuw (%struct.darktable_t, ptr @darktable, i32 0, i32 9), align 8, !tbaa !51
  %19 = getelementptr inbounds nuw %struct.dt_develop_t, ptr %18, i32 0, i32 15
  %20 = load ptr, ptr %19, align 8, !tbaa !208
  %21 = load ptr, ptr %7, align 8, !tbaa !6
  %22 = icmp ne ptr %20, %21
  br i1 %22, label %23, label %25

23:                                               ; preds = %17
  %24 = load ptr, ptr %7, align 8, !tbaa !6
  call void @dt_iop_request_focus(ptr noundef %24)
  br label %25

25:                                               ; preds = %23, %17
  %26 = load ptr, ptr %6, align 8, !tbaa !201
  %27 = getelementptr inbounds nuw %struct._GdkEventButton, ptr %26, i32 0, i32 0
  %28 = load i32, ptr %27, align 8, !tbaa !209
  %29 = icmp eq i32 %28, 5
  br i1 %29, label %30, label %80

30:                                               ; preds = %25
  %31 = load ptr, ptr %7, align 8, !tbaa !6
  call void @_turn_selregion_picker_off(ptr noundef %31)
  call void @llvm.lifetime.start.p0(i64 8, ptr %8) #13
  %32 = load ptr, ptr %7, align 8, !tbaa !6
  %33 = getelementptr inbounds nuw %struct.dt_iop_module_t, ptr %32, i32 0, i32 83
  %34 = load ptr, ptr %33, align 16, !tbaa !21
  store ptr %34, ptr %8, align 8, !tbaa !37
  call void @llvm.lifetime.start.p0(i64 8, ptr %9) #13
  %35 = load ptr, ptr %7, align 8, !tbaa !6
  %36 = getelementptr inbounds nuw %struct.dt_iop_module_t, ptr %35, i32 0, i32 80
  %37 = load ptr, ptr %36, align 8, !tbaa !125
  store ptr %37, ptr %9, align 8, !tbaa !126
  call void @llvm.lifetime.start.p0(i64 8, ptr %10) #13
  %38 = load ptr, ptr %7, align 8, !tbaa !6
  %39 = getelementptr inbounds nuw %struct.dt_iop_module_t, ptr %38, i32 0, i32 81
  %40 = load ptr, ptr %39, align 16, !tbaa !151
  store ptr %40, ptr %10, align 8, !tbaa !126
  call void @llvm.lifetime.start.p0(i64 4, ptr %11) #13
  store i32 0, ptr %11, align 4, !tbaa !19
  br label %41

41:                                               ; preds = %67, %30
  %42 = load i32, ptr %11, align 4, !tbaa !19
  %43 = icmp slt i32 %42, 3
  br i1 %43, label %45, label %44

44:                                               ; preds = %41
  call void @llvm.lifetime.end.p0(i64 4, ptr %11) #13
  br label %70

45:                                               ; preds = %41
  %46 = load ptr, ptr %10, align 8, !tbaa !126
  %47 = getelementptr inbounds nuw %struct.dt_iop_rgblevels_params_t, ptr %46, i32 0, i32 2
  %48 = load ptr, ptr %8, align 8, !tbaa !37
  %49 = getelementptr inbounds nuw %struct.dt_iop_rgblevels_gui_data_t, ptr %48, i32 0, i32 20
  %50 = load i32, ptr %49, align 4, !tbaa !129
  %51 = zext i32 %50 to i64
  %52 = getelementptr inbounds nuw [3 x [3 x float]], ptr %47, i64 0, i64 %51
  %53 = load i32, ptr %11, align 4, !tbaa !19
  %54 = sext i32 %53 to i64
  %55 = getelementptr inbounds [3 x float], ptr %52, i64 0, i64 %54
  %56 = load float, ptr %55, align 4, !tbaa !15
  %57 = load ptr, ptr %9, align 8, !tbaa !126
  %58 = getelementptr inbounds nuw %struct.dt_iop_rgblevels_params_t, ptr %57, i32 0, i32 2
  %59 = load ptr, ptr %8, align 8, !tbaa !37
  %60 = getelementptr inbounds nuw %struct.dt_iop_rgblevels_gui_data_t, ptr %59, i32 0, i32 20
  %61 = load i32, ptr %60, align 4, !tbaa !129
  %62 = zext i32 %61 to i64
  %63 = getelementptr inbounds nuw [3 x [3 x float]], ptr %58, i64 0, i64 %62
  %64 = load i32, ptr %11, align 4, !tbaa !19
  %65 = sext i32 %64 to i64
  %66 = getelementptr inbounds [3 x float], ptr %63, i64 0, i64 %65
  store float %56, ptr %66, align 4, !tbaa !15
  br label %67

67:                                               ; preds = %45
  %68 = load i32, ptr %11, align 4, !tbaa !19
  %69 = add nsw i32 %68, 1
  store i32 %69, ptr %11, align 4, !tbaa !19
  br label %41

70:                                               ; preds = %44
  %71 = load ptr, ptr %8, align 8, !tbaa !37
  %72 = getelementptr inbounds nuw %struct.dt_iop_rgblevels_gui_data_t, ptr %71, i32 0, i32 19
  store float 5.000000e-01, ptr %72, align 8, !tbaa !162
  %73 = load ptr, ptr getelementptr inbounds nuw (%struct.darktable_t, ptr @darktable, i32 0, i32 9), align 8, !tbaa !51
  %74 = load ptr, ptr %7, align 8, !tbaa !6
  call void @dt_dev_add_history_item(ptr noundef %73, ptr noundef %74, i32 noundef 1)
  %75 = load ptr, ptr %8, align 8, !tbaa !37
  %76 = getelementptr inbounds nuw %struct.dt_iop_rgblevels_gui_data_t, ptr %75, i32 0, i32 2
  %77 = load ptr, ptr %76, align 8, !tbaa !149
  %78 = call i64 @gtk_widget_get_type() #14
  %79 = call ptr @g_type_check_instance_cast(ptr noundef %77, i64 noundef %78)
  call void @gtk_widget_queue_draw(ptr noundef %79)
  call void @llvm.lifetime.end.p0(i64 8, ptr %10) #13
  call void @llvm.lifetime.end.p0(i64 8, ptr %9) #13
  call void @llvm.lifetime.end.p0(i64 8, ptr %8) #13
  br label %87

80:                                               ; preds = %25
  %81 = load ptr, ptr %7, align 8, !tbaa !6
  call void @_turn_selregion_picker_off(ptr noundef %81)
  call void @llvm.lifetime.start.p0(i64 8, ptr %12) #13
  %82 = load ptr, ptr %7, align 8, !tbaa !6
  %83 = getelementptr inbounds nuw %struct.dt_iop_module_t, ptr %82, i32 0, i32 83
  %84 = load ptr, ptr %83, align 16, !tbaa !21
  store ptr %84, ptr %12, align 8, !tbaa !37
  %85 = load ptr, ptr %12, align 8, !tbaa !37
  %86 = getelementptr inbounds nuw %struct.dt_iop_rgblevels_gui_data_t, ptr %85, i32 0, i32 17
  store i32 1, ptr %86, align 8, !tbaa !169
  call void @llvm.lifetime.end.p0(i64 8, ptr %12) #13
  br label %87

87:                                               ; preds = %80, %70
  store i32 1, ptr %4, align 4
  br label %89

88:                                               ; preds = %3
  store i32 0, ptr %4, align 4
  br label %89

89:                                               ; preds = %88, %87
  %90 = load i32, ptr %4, align 4
  ret i32 %90
}