; Function Attrs: nounwind uwtable
define internal range(i32 0, 2) i32 @_area_button_press_callback(ptr readnone captures(none) %0, ptr noundef readonly captures(none) %1, ptr noundef %2) #1 {
  %4 = getelementptr inbounds nuw i8, ptr %1, i64 52
  %5 = load i32, ptr %4, align 4, !tbaa !179
  %6 = icmp eq i32 %5, 1
  br i1 %6, label %7, label %57

7:                                                ; preds = %3
  %8 = load ptr, ptr getelementptr inbounds nuw (i8, ptr @darktable, i64 64), align 8, !tbaa !42
  %9 = getelementptr inbounds nuw i8, ptr %8, i64 88
  %10 = load ptr, ptr %9, align 8, !tbaa !184
  %.not = icmp eq ptr %10, %2
  br i1 %.not, label %12, label %11

11:                                               ; preds = %7
  tail call void @dt_iop_request_focus(ptr noundef %2) #21
  br label %12

12:                                               ; preds = %11, %7
  %13 = load i32, ptr %1, align 8, !tbaa !185
  %14 = icmp eq i32 %13, 5
  %15 = getelementptr i8, ptr %2, i64 704
  %.val.i = load ptr, ptr %15, align 16, !tbaa !6
  %.not.i.i = icmp eq ptr %.val.i, null
  br i1 %14, label %16, label %46

16:                                               ; preds = %12
  br i1 %.not.i.i, label %_turn_selregion_picker_off.exit, label %17

17:                                               ; preds = %16
  %18 = getelementptr inbounds nuw i8, ptr %.val.i, i64 100
  store i32 0, ptr %18, align 4, !tbaa !27
  %19 = getelementptr inbounds nuw i8, ptr %.val.i, i64 136
  store i32 0, ptr %19, align 8, !tbaa !34
  %20 = getelementptr inbounds nuw i8, ptr %.val.i, i64 88
  %21 = load ptr, ptr %20, align 8, !tbaa !113
  %22 = tail call i64 @gtk_toggle_button_get_type() #23
  %23 = tail call ptr @g_type_check_instance_cast(ptr noundef %21, i64 noundef %22) #21
  %24 = load i32, ptr %18, align 4, !tbaa !27
  tail call void @gtk_toggle_button_set_active(ptr noundef %23, i32 noundef %24) #21
  br label %_turn_selregion_picker_off.exit

_turn_selregion_picker_off.exit:                  ; preds = %16, %17
  tail call void @dt_iop_color_picker_reset(ptr noundef nonnull %2, i32 noundef 1) #21
  %25 = load ptr, ptr %15, align 16, !tbaa !6
  %26 = getelementptr inbounds nuw i8, ptr %2, i64 680
  %27 = load ptr, ptr %26, align 8, !tbaa !114
  %28 = getelementptr inbounds nuw i8, ptr %2, i64 688
  %29 = load ptr, ptr %28, align 16, !tbaa !135
  %30 = getelementptr inbounds nuw i8, ptr %29, i64 8
  %31 = getelementptr inbounds nuw i8, ptr %25, i64 172
  %32 = load i32, ptr %31, align 4, !tbaa !116
  %33 = zext i32 %32 to i64
  %34 = getelementptr inbounds nuw i8, ptr %27, i64 8
  br label %42

35:                                               ; preds = %42
  %36 = getelementptr inbounds nuw i8, ptr %25, i64 168
  store float 5.000000e-01, ptr %36, align 8, !tbaa !142
  %37 = load ptr, ptr getelementptr inbounds nuw (i8, ptr @darktable, i64 64), align 8, !tbaa !42
  tail call void @dt_dev_add_history_item(ptr noundef %37, ptr noundef nonnull %2, i32 noundef 1) #21
  %38 = getelementptr inbounds nuw i8, ptr %25, i64 56
  %39 = load ptr, ptr %38, align 8, !tbaa !133
  %40 = tail call i64 @gtk_widget_get_type() #23
  %41 = tail call ptr @g_type_check_instance_cast(ptr noundef %39, i64 noundef %40) #21
  tail call void @gtk_widget_queue_draw(ptr noundef %41) #21
  br label %57

42:                                               ; preds = %_turn_selregion_picker_off.exit, %42
  %indvars.iv = phi i64 [ 0, %_turn_selregion_picker_off.exit ], [ %indvars.iv.next, %42 ]
  %43 = getelementptr inbounds nuw [3 x [3 x float]], ptr %30, i64 0, i64 %33, i64 %indvars.iv
  %44 = load float, ptr %43, align 4, !tbaa !37
  %45 = getelementptr inbounds nuw [3 x [3 x float]], ptr %34, i64 0, i64 %33, i64 %indvars.iv
  store float %44, ptr %45, align 4, !tbaa !37
  %indvars.iv.next = add nuw nsw i64 %indvars.iv, 1
  %exitcond.not = icmp eq i64 %indvars.iv.next, 3
  br i1 %exitcond.not, label %35, label %42

46:                                               ; preds = %12
  br i1 %.not.i.i, label %_turn_selregion_picker_off.exit26, label %47

47:                                               ; preds = %46
  %48 = getelementptr inbounds nuw i8, ptr %.val.i, i64 100
  store i32 0, ptr %48, align 4, !tbaa !27
  %49 = getelementptr inbounds nuw i8, ptr %.val.i, i64 136
  store i32 0, ptr %49, align 8, !tbaa !34
  %50 = getelementptr inbounds nuw i8, ptr %.val.i, i64 88
  %51 = load ptr, ptr %50, align 8, !tbaa !113
  %52 = tail call i64 @gtk_toggle_button_get_type() #23
  %53 = tail call ptr @g_type_check_instance_cast(ptr noundef %51, i64 noundef %52) #21
  %54 = load i32, ptr %48, align 4, !tbaa !27
  tail call void @gtk_toggle_button_set_active(ptr noundef %53, i32 noundef %54) #21
  br label %_turn_selregion_picker_off.exit26

_turn_selregion_picker_off.exit26:                ; preds = %46, %47
  tail call void @dt_iop_color_picker_reset(ptr noundef nonnull %2, i32 noundef 1) #21
  %55 = load ptr, ptr %15, align 16, !tbaa !6
  %56 = getelementptr inbounds nuw i8, ptr %55, i64 160
  store i32 1, ptr %56, align 8, !tbaa !148
  br label %57

57:                                               ; preds = %3, %35, %_turn_selregion_picker_off.exit26
  %.0 = phi i32 [ 1, %_turn_selregion_picker_off.exit26 ], [ 1, %35 ], [ 0, %3 ]
  ret i32 %.0
}